target datalayout = "e-m:e-p270:32:32-p271:32:32-p272:64:64-i64:64-i128:128-f80:128-n8:16:32:64-S128"
target triple = "x86_64-pc-linux-gnu"

%union.pthread_mutex_t = type { %struct.__pthread_mutex_s }
%struct.__pthread_mutex_s = type { i32, i32, i32, i32, i32, i16, i16, %struct.__pthread_internal_list }
%struct.__pthread_internal_list = type { ptr, ptr }
%struct.hostlist = type { i32, %union.pthread_mutex_t, i32, i32, i32, ptr, ptr }

@.str.7 = private unnamed_addr constant [11 x i8] c"hostlist.c\00", align 1
@__func__.hostlist_new = private unnamed_addr constant [13 x i8] c"hostlist_new\00", align 1
@.str.19 = private unnamed_addr constant [29 x i8] c"%s: pthread_mutex_init(): %m\00", align 1

; Function Attrs: nounwind uwtable
define internal ptr @hostlist_new() #0 {
  %1 = alloca i32, align 4
  %2 = alloca ptr, align 8
  %3 = alloca i32, align 4
  call void @llvm.lifetime.start.p0(i64 4, ptr %1) #13
  call void @llvm.lifetime.start.p0(i64 8, ptr %2) #13
  %4 = call ptr @slurm_xcalloc(i64 noundef 1, i64 noundef 80, i1 noundef zeroext true, i1 noundef zeroext false, ptr noundef @.str.7, i32 noundef 1138, ptr noundef @__func__.hostlist_new)
  store ptr %4, ptr %2, align 8
  %5 = load ptr, ptr %2, align 8
  %6 = getelementptr inbounds nuw %struct.hostlist, ptr %5, i32 0, i32 0
  store i32 57005, ptr %6, align 8
  br label %7

7:                                                ; preds = %0
  call void @llvm.lifetime.start.p0(i64 4, ptr %3) #13
  %8 = load ptr, ptr %2, align 8
  %9 = getelementptr inbounds nuw %struct.hostlist, ptr %8, i32 0, i32 1
  %10 = call i32 @pthread_mutex_init(ptr noundef %9, ptr noundef null) #13
  store i32 %10, ptr %3, align 4
  %11 = load i32, ptr %3, align 4
  %12 = icmp ne i32 %11, 0
  br i1 %12, label %13, label %16

13:                                               ; preds = %7
  %14 = load i32, ptr %3, align 4
  %15 = call ptr @__errno_location() #14
  store i32 %14, ptr %15, align 4
  call void (ptr, ...) @fatal_abort(ptr noundef @.str.19, ptr noundef @__func__.hostlist_new) #15
  unreachable

16:                                               ; preds = %7
  call void @llvm.lifetime.end.p0(i64 4, ptr %3) #13
  br label %17

17:                                               ; preds = %16
  br label %18

18:                                               ; preds = %17
  %19 = call ptr @slurm_xcalloc(i64 noundef 16, i64 noundef 8, i1 noundef zeroext true, i1 noundef zeroext false, ptr noundef @.str.7, i32 noundef 1143, ptr noundef @__func__.hostlist_new)
  %20 = load ptr, ptr %2, align 8
  %21 = getelementptr inbounds nuw %struct.hostlist, ptr %20, i32 0, i32 5
  store ptr %19, ptr %21, align 8
  store i32 0, ptr %1, align 4
  br label %22

22:                                               ; preds = %32, %18
  %23 = load i32, ptr %1, align 4
  %24 = icmp slt i32 %23, 16
  br i1 %24, label %25, label %35

25:                                               ; preds = %22
  %26 = load ptr, ptr %2, align 8
  %27 = getelementptr inbounds nuw %struct.hostlist, ptr %26, i32 0, i32 5
  %28 = load ptr, ptr %27, align 8
  %29 = load i32, ptr %1, align 4
  %30 = sext i32 %29 to i64
  %31 = getelementptr inbounds ptr, ptr %28, i64 %30
  store ptr null, ptr %31, align 8
  br label %32

32:                                               ; preds = %25
  %33 = load i32, ptr %1, align 4
  %34 = add nsw i32 %33, 1
  store i32 %34, ptr %1, align 4
  br label %22, !llvm.loop !34

35:                                               ; preds = %22
  %36 = load ptr, ptr %2, align 8
  %37 = getelementptr inbounds nuw %struct.hostlist, ptr %36, i32 0, i32 2
  store i32 16, ptr %37, align 8
  %38 = load ptr, ptr %2, align 8
  %39 = getelementptr inbounds nuw %struct.hostlist, ptr %38, i32 0, i32 3
  store i32 0, ptr %39, align 4
  %40 = load ptr, ptr %2, align 8
  %41 = getelementptr inbounds nuw %struct.hostlist, ptr %40, i32 0, i32 4
  store i32 0, ptr %41, align 8
  %42 = load ptr, ptr %2, align 8
  %43 = getelementptr inbounds nuw %struct.hostlist, ptr %42, i32 0, i32 6
  store ptr null, ptr %43, align 8
  %44 = load ptr, ptr %2, align 8
  call void @llvm.lifetime.end.p0(i64 8, ptr %2) #13
  call void @llvm.lifetime.end.p0(i64 4, ptr %1) #13
  ret ptr %44
}