; Function Attrs: nounwind uwtable
define internal fastcc noundef ptr @hostlist_new() unnamed_addr #0 {
  %1 = tail call ptr @slurm_xcalloc(i64 noundef 1, i64 noundef 80, i1 noundef zeroext true, i1 noundef zeroext false, ptr noundef nonnull @.str.7, i32 noundef 1138, ptr noundef nonnull @__func__.hostlist_new) #22
  store i32 57005, ptr %1, align 8
  %2 = getelementptr inbounds nuw i8, ptr %1, i64 8
  %3 = tail call i32 @pthread_mutex_init(ptr noundef nonnull %2, ptr noundef null) #22
  %.not = icmp eq i32 %3, 0
  br i1 %.not, label %6, label %4

4:                                                ; preds = %0
  %5 = tail call ptr @__errno_location() #24
  store i32 %3, ptr %5, align 4
  tail call void (ptr, ...) @fatal_abort(ptr noundef nonnull @.str.19, ptr noundef nonnull @__func__.hostlist_new) #25
  unreachable

6:                                                ; preds = %0
  %7 = tail call ptr @slurm_xcalloc(i64 noundef 16, i64 noundef 8, i1 noundef zeroext true, i1 noundef zeroext false, ptr noundef nonnull @.str.7, i32 noundef 1143, ptr noundef nonnull @__func__.hostlist_new) #22
  %8 = getelementptr inbounds nuw i8, ptr %1, i64 64
  store ptr %7, ptr %8, align 8
  br label %9

9:                                                ; preds = %6, %9
  %indvars.iv = phi i64 [ 0, %6 ], [ %indvars.iv.next, %9 ]
  %10 = load ptr, ptr %8, align 8
  %11 = getelementptr inbounds nuw ptr, ptr %10, i64 %indvars.iv
  store ptr null, ptr %11, align 8
  %indvars.iv.next = add nuw nsw i64 %indvars.iv, 1
  %exitcond.not = icmp eq i64 %indvars.iv.next, 16
  br i1 %exitcond.not, label %12, label %9, !llvm.loop !49

12:                                               ; preds = %9
  %13 = getelementptr inbounds nuw i8, ptr %1, i64 48
  store i32 16, ptr %13, align 8
  %14 = getelementptr inbounds nuw i8, ptr %1, i64 52
  store i32 0, ptr %14, align 4
  %15 = getelementptr inbounds nuw i8, ptr %1, i64 56
  store i32 0, ptr %15, align 8
  %16 = getelementptr inbounds nuw i8, ptr %1, i64 72
  store ptr null, ptr %16, align 8
  ret ptr %1
}